; Listing generated by Microsoft (R) Optimizing Compiler Version 19.25.28614.0 

	TITLE	D:\WorkBench\C_C++\C_CPP_Projects\template_workout\template_umar_lone\template_umar_lone\1_basic_template.cpp
	.686P
	.XMM
	include listing.inc
	.model	flat

INCLUDELIB MSVCRTD
INCLUDELIB OLDNAMES

msvcjmc	SEGMENT
__974988F5_vcruntime_new@h DB 01H
__31037F1C_corecrt_math@h DB 01H
__354C793C_stdlib@h DB 01H
__371733F3_cstdlib DB 01H
__55128720_cmath DB 01H
__9D901A5B_corecrt_stdio_config@h DB 01H
__B5E5DBB1_corecrt_wstdio@h DB 01H
__09F1AE6C_stdio@h DB 01H
__0E8916BF_type_traits DB 01H
__A1615ECA_malloc@h DB 01H
__97E1E39A_vcruntime_exception@h DB 01H
__844DD151_exception DB 01H
__E53D454B_corecrt_memcpy_s@h DB 01H
__902A32B8_corecrt_memory@h DB 01H
__4BE15784_corecrt_wstring@h DB 01H
__B33FED98_string@h DB 01H
__F19AAD86_corecrt_wconio@h DB 01H
__ABFA14BD_corecrt_wio@h DB 01H
__B2AECF51_corecrt_wtime@h DB 01H
__A6B04EFA_stat@h DB 01H
__F7D74D91_wchar@h DB 01H
__4EBED41A_limits DB 01H
__AB53142C_xutility DB 01H
__6A8FD5BB_xmemory DB 01H
__1E5C5327_xstring DB 01H
__0D03EB0C_stdexcept DB 01H
__B389F674_xcall_once@h DB 01H
__0CD4E454_system_error DB 01H
__2735BDB8_vcruntime_typeinfo@h DB 01H
__DB8CE735_typeinfo DB 01H
__F210D894_memory DB 01H
__DE558F9B_xfacet DB 01H
__D6D9FC52_ctype@h DB 01H
__C40504FD_xlocinfo DB 01H
__C1622716_xlocale DB 01H
__FDE073EE_xiosbase DB 01H
__5FE54101_xlocnum DB 01H
__DAA90AF6_ios DB 01H
__057C14A8_1_basic_template@cpp DB 01H
__B1A2C8E8_istream DB 01H
__D272FDD2_ostream DB 01H
__0FA353B0_streambuf DB 01H
__8257019C_iosfwd DB 01H
__001AB678_utility DB 01H
__F705216A_xstddef DB 01H
__8E415D87_xatomic@h DB 01H
msvcjmc	ENDS
PUBLIC	?__empty_global_delete@@YAXPAX@Z		; __empty_global_delete
PUBLIC	?__empty_global_delete@@YAXPAXI@Z		; __empty_global_delete
PUBLIC	_main
PUBLIC	??$Max@M@@YAMMM@Z				; Max<float>
PUBLIC	??$endl@DU?$char_traits@D@std@@@std@@YAAAV?$basic_ostream@DU?$char_traits@D@std@@@0@AAV10@@Z ; std::endl<char,std::char_traits<char> >
PUBLIC	??$Max@H@@YAHHH@Z				; Max<int>
PUBLIC	__JustMyCode_Default
PUBLIC	__real@40600000
PUBLIC	__real@41066666
EXTRN	__imp__getchar:PROC
EXTRN	__imp_?widen@?$basic_ios@DU?$char_traits@D@std@@@std@@QBEDD@Z:PROC
EXTRN	__imp_??6?$basic_ostream@DU?$char_traits@D@std@@@std@@QAEAAV01@P6AAAV01@AAV01@@Z@Z:PROC
EXTRN	__imp_??6?$basic_ostream@DU?$char_traits@D@std@@@std@@QAEAAV01@H@Z:PROC
EXTRN	__imp_??6?$basic_ostream@DU?$char_traits@D@std@@@std@@QAEAAV01@M@Z:PROC
EXTRN	__imp_?put@?$basic_ostream@DU?$char_traits@D@std@@@std@@QAEAAV12@D@Z:PROC
EXTRN	__imp_?flush@?$basic_ostream@DU?$char_traits@D@std@@@std@@QAEAAV12@XZ:PROC
EXTRN	@__CheckForDebuggerJustMyCode@4:PROC
EXTRN	__RTC_CheckEsp:PROC
EXTRN	__RTC_InitBase:PROC
EXTRN	__RTC_Shutdown:PROC
EXTRN	__imp_?cout@std@@3V?$basic_ostream@DU?$char_traits@D@std@@@1@A:BYTE
EXTRN	__fltused:DWORD
;	COMDAT __real@41066666
CONST	SEGMENT
__real@41066666 DD 041066666r			; 8.4
CONST	ENDS
;	COMDAT __real@40600000
CONST	SEGMENT
__real@40600000 DD 040600000r			; 3.5
CONST	ENDS
;	COMDAT rtc$TMZ
rtc$TMZ	SEGMENT
__RTC_Shutdown.rtc$TMZ DD FLAT:__RTC_Shutdown
rtc$TMZ	ENDS
;	COMDAT rtc$IMZ
rtc$IMZ	SEGMENT
__RTC_InitBase.rtc$IMZ DD FLAT:__RTC_InitBase
rtc$IMZ	ENDS
; Function compile flags: /Odt
;	COMDAT __JustMyCode_Default
_TEXT	SEGMENT
__JustMyCode_Default PROC				; COMDAT
	push	ebp
	mov	ebp, esp
	pop	ebp
	ret	0
__JustMyCode_Default ENDP
_TEXT	ENDS
; Function compile flags: /Odtp /RTCsu /ZI
; File D:\WorkBench\C_C++\C_CPP_Projects\template_workout\template_umar_lone\template_umar_lone\1_basic_template.cpp
;	COMDAT ??$Max@H@@YAHHH@Z
_TEXT	SEGMENT
tv65 = -196						; size = 4
_X$ = 8							; size = 4
_Y$ = 12						; size = 4
??$Max@H@@YAHHH@Z PROC					; Max<int>, COMDAT

; 8    : {

	push	ebp
	mov	ebp, esp
	sub	esp, 196				; 000000c4H
	push	ebx
	push	esi
	push	edi
	lea	edi, DWORD PTR [ebp-196]
	mov	ecx, 49					; 00000031H
	mov	eax, -858993460				; ccccccccH
	rep stosd
	mov	ecx, OFFSET __057C14A8_1_basic_template@cpp
	call	@__CheckForDebuggerJustMyCode@4

; 9    :     return X > Y ? X : Y;

	mov	eax, DWORD PTR _X$[ebp]
	cmp	eax, DWORD PTR _Y$[ebp]
	jle	SHORT $LN3@Max
	mov	ecx, DWORD PTR _X$[ebp]
	mov	DWORD PTR tv65[ebp], ecx
	jmp	SHORT $LN4@Max
$LN3@Max:
	mov	edx, DWORD PTR _Y$[ebp]
	mov	DWORD PTR tv65[ebp], edx
$LN4@Max:
	mov	eax, DWORD PTR tv65[ebp]

; 10   : }

	pop	edi
	pop	esi
	pop	ebx
	add	esp, 196				; 000000c4H
	cmp	ebp, esp
	call	__RTC_CheckEsp
	mov	esp, ebp
	pop	ebp
	ret	0
??$Max@H@@YAHHH@Z ENDP					; Max<int>
_TEXT	ENDS
; Function compile flags: /Odtp /RTCsu /ZI
; File C:\Program Files\Microsoft Visual Studio\2019\Community\VC\Tools\MSVC\14.25.28610\include\ostream
;	COMDAT ??$endl@DU?$char_traits@D@std@@@std@@YAAAV?$basic_ostream@DU?$char_traits@D@std@@@0@AAV10@@Z
_TEXT	SEGMENT
__Ostr$ = 8						; size = 4
??$endl@DU?$char_traits@D@std@@@std@@YAAAV?$basic_ostream@DU?$char_traits@D@std@@@0@AAV10@@Z PROC ; std::endl<char,std::char_traits<char> >, COMDAT

; 943  :     basic_ostream<_Elem, _Traits>& _Ostr) { // insert newline and flush stream

	push	ebp
	mov	ebp, esp
	sub	esp, 192				; 000000c0H
	push	ebx
	push	esi
	push	edi
	lea	edi, DWORD PTR [ebp-192]
	mov	ecx, 48					; 00000030H
	mov	eax, -858993460				; ccccccccH
	rep stosd
	mov	ecx, OFFSET __D272FDD2_ostream
	call	@__CheckForDebuggerJustMyCode@4

; 944  :     _Ostr.put(_Ostr.widen('\n'));

	mov	esi, esp
	push	10					; 0000000aH
	mov	eax, DWORD PTR __Ostr$[ebp]
	mov	ecx, DWORD PTR [eax]
	mov	edx, DWORD PTR __Ostr$[ebp]
	add	edx, DWORD PTR [ecx+4]
	mov	ecx, edx
	call	DWORD PTR __imp_?widen@?$basic_ios@DU?$char_traits@D@std@@@std@@QBEDD@Z
	cmp	esi, esp
	call	__RTC_CheckEsp
	mov	esi, esp
	movzx	eax, al
	push	eax
	mov	ecx, DWORD PTR __Ostr$[ebp]
	call	DWORD PTR __imp_?put@?$basic_ostream@DU?$char_traits@D@std@@@std@@QAEAAV12@D@Z
	cmp	esi, esp
	call	__RTC_CheckEsp

; 945  :     _Ostr.flush();

	mov	esi, esp
	mov	ecx, DWORD PTR __Ostr$[ebp]
	call	DWORD PTR __imp_?flush@?$basic_ostream@DU?$char_traits@D@std@@@std@@QAEAAV12@XZ
	cmp	esi, esp
	call	__RTC_CheckEsp

; 946  :     return _Ostr;

	mov	eax, DWORD PTR __Ostr$[ebp]

; 947  : }

	pop	edi
	pop	esi
	pop	ebx
	add	esp, 192				; 000000c0H
	cmp	ebp, esp
	call	__RTC_CheckEsp
	mov	esp, ebp
	pop	ebp
	ret	0
??$endl@DU?$char_traits@D@std@@@std@@YAAAV?$basic_ostream@DU?$char_traits@D@std@@@0@AAV10@@Z ENDP ; std::endl<char,std::char_traits<char> >
_TEXT	ENDS
; Function compile flags: /Odtp /RTCsu /ZI
; File D:\WorkBench\C_C++\C_CPP_Projects\template_workout\template_umar_lone\template_umar_lone\1_basic_template.cpp
;	COMDAT ??$Max@M@@YAMMM@Z
_TEXT	SEGMENT
tv65 = -196						; size = 4
_X$ = 8							; size = 4
_Y$ = 12						; size = 4
??$Max@M@@YAMMM@Z PROC					; Max<float>, COMDAT

; 8    : {

	push	ebp
	mov	ebp, esp
	sub	esp, 196				; 000000c4H
	push	ebx
	push	esi
	push	edi
	lea	edi, DWORD PTR [ebp-196]
	mov	ecx, 49					; 00000031H
	mov	eax, -858993460				; ccccccccH
	rep stosd
	mov	ecx, OFFSET __057C14A8_1_basic_template@cpp
	call	@__CheckForDebuggerJustMyCode@4

; 9    :     return X > Y ? X : Y;

	movss	xmm0, DWORD PTR _X$[ebp]
	comiss	xmm0, DWORD PTR _Y$[ebp]
	jbe	SHORT $LN3@Max
	movss	xmm0, DWORD PTR _X$[ebp]
	movss	DWORD PTR tv65[ebp], xmm0
	jmp	SHORT $LN4@Max
$LN3@Max:
	movss	xmm0, DWORD PTR _Y$[ebp]
	movss	DWORD PTR tv65[ebp], xmm0
$LN4@Max:
	fld	DWORD PTR tv65[ebp]

; 10   : }

	pop	edi
	pop	esi
	pop	ebx
	add	esp, 196				; 000000c4H
	cmp	ebp, esp
	call	__RTC_CheckEsp
	mov	esp, ebp
	pop	ebp
	ret	0
??$Max@M@@YAMMM@Z ENDP					; Max<float>
_TEXT	ENDS
; Function compile flags: /Odtp /RTCsu /ZI
; File D:\WorkBench\C_C++\C_CPP_Projects\template_workout\template_umar_lone\template_umar_lone\1_basic_template.cpp
;	COMDAT _main
_TEXT	SEGMENT
_num2$ = -20						; size = 4
_num$ = -8						; size = 4
_main	PROC						; COMDAT

; 13   : {

	push	ebp
	mov	ebp, esp
	sub	esp, 216				; 000000d8H
	push	ebx
	push	esi
	push	edi
	lea	edi, DWORD PTR [ebp-216]
	mov	ecx, 54					; 00000036H
	mov	eax, -858993460				; ccccccccH
	rep stosd
	mov	ecx, OFFSET __057C14A8_1_basic_template@cpp
	call	@__CheckForDebuggerJustMyCode@4

; 14   :     auto num = Max(3.5f, 8.4f);

	push	ecx
	movss	xmm0, DWORD PTR __real@41066666
	movss	DWORD PTR [esp], xmm0
	push	ecx
	movss	xmm0, DWORD PTR __real@40600000
	movss	DWORD PTR [esp], xmm0
	call	??$Max@M@@YAMMM@Z			; Max<float>
	add	esp, 8
	fstp	DWORD PTR _num$[ebp]

; 15   :     std::cout << num << std::endl;

	mov	esi, esp
	push	OFFSET ??$endl@DU?$char_traits@D@std@@@std@@YAAAV?$basic_ostream@DU?$char_traits@D@std@@@0@AAV10@@Z ; std::endl<char,std::char_traits<char> >
	mov	edi, esp
	push	ecx
	movss	xmm0, DWORD PTR _num$[ebp]
	movss	DWORD PTR [esp], xmm0
	mov	ecx, DWORD PTR __imp_?cout@std@@3V?$basic_ostream@DU?$char_traits@D@std@@@1@A
	call	DWORD PTR __imp_??6?$basic_ostream@DU?$char_traits@D@std@@@std@@QAEAAV01@M@Z
	cmp	edi, esp
	call	__RTC_CheckEsp
	mov	ecx, eax
	call	DWORD PTR __imp_??6?$basic_ostream@DU?$char_traits@D@std@@@std@@QAEAAV01@P6AAAV01@AAV01@@Z@Z
	cmp	esi, esp
	call	__RTC_CheckEsp

; 16   : 
; 17   :     auto num2 = Max(38, 12);

	push	12					; 0000000cH
	push	38					; 00000026H
	call	??$Max@H@@YAHHH@Z			; Max<int>
	add	esp, 8
	mov	DWORD PTR _num2$[ebp], eax

; 18   :     std::cout << num2 << std::endl;

	mov	esi, esp
	push	OFFSET ??$endl@DU?$char_traits@D@std@@@std@@YAAAV?$basic_ostream@DU?$char_traits@D@std@@@0@AAV10@@Z ; std::endl<char,std::char_traits<char> >
	mov	edi, esp
	mov	eax, DWORD PTR _num2$[ebp]
	push	eax
	mov	ecx, DWORD PTR __imp_?cout@std@@3V?$basic_ostream@DU?$char_traits@D@std@@@1@A
	call	DWORD PTR __imp_??6?$basic_ostream@DU?$char_traits@D@std@@@std@@QAEAAV01@H@Z
	cmp	edi, esp
	call	__RTC_CheckEsp
	mov	ecx, eax
	call	DWORD PTR __imp_??6?$basic_ostream@DU?$char_traits@D@std@@@std@@QAEAAV01@P6AAAV01@AAV01@@Z@Z
	cmp	esi, esp
	call	__RTC_CheckEsp

; 19   : 
; 20   :     getchar();

	mov	esi, esp
	call	DWORD PTR __imp__getchar
	cmp	esi, esp
	call	__RTC_CheckEsp

; 21   : 
; 22   :     return 0;

	xor	eax, eax

; 23   : }

	pop	edi
	pop	esi
	pop	ebx
	add	esp, 216				; 000000d8H
	cmp	ebp, esp
	call	__RTC_CheckEsp
	mov	esp, ebp
	pop	ebp
	ret	0
_main	ENDP
_TEXT	ENDS
; Function compile flags: /Odtp /RTCsu /ZI
; File D:\WorkBench\C_C++\C_CPP_Projects\template_workout\template_umar_lone\template_umar_lone\1_basic_template.cpp
;	COMDAT ?__empty_global_delete@@YAXPAXI@Z
_TEXT	SEGMENT
___formal$ = 8						; size = 4
___formal$ = 12						; size = 4
?__empty_global_delete@@YAXPAXI@Z PROC			; __empty_global_delete, COMDAT

	push	ebp
	mov	ebp, esp
	sub	esp, 192				; 000000c0H
	push	ebx
	push	esi
	push	edi
	lea	edi, DWORD PTR [ebp-192]
	mov	ecx, 48					; 00000030H
	mov	eax, -858993460				; ccccccccH
	rep stosd
	mov	ecx, OFFSET __057C14A8_1_basic_template@cpp
	call	@__CheckForDebuggerJustMyCode@4
	pop	edi
	pop	esi
	pop	ebx
	add	esp, 192				; 000000c0H
	cmp	ebp, esp
	call	__RTC_CheckEsp
	mov	esp, ebp
	pop	ebp
	ret	0
?__empty_global_delete@@YAXPAXI@Z ENDP			; __empty_global_delete
_TEXT	ENDS
; Function compile flags: /Odtp /RTCsu /ZI
; File D:\WorkBench\C_C++\C_CPP_Projects\template_workout\template_umar_lone\template_umar_lone\1_basic_template.cpp
;	COMDAT ?__empty_global_delete@@YAXPAX@Z
_TEXT	SEGMENT
___formal$ = 8						; size = 4
?__empty_global_delete@@YAXPAX@Z PROC			; __empty_global_delete, COMDAT

	push	ebp
	mov	ebp, esp
	sub	esp, 192				; 000000c0H
	push	ebx
	push	esi
	push	edi
	lea	edi, DWORD PTR [ebp-192]
	mov	ecx, 48					; 00000030H
	mov	eax, -858993460				; ccccccccH
	rep stosd
	mov	ecx, OFFSET __057C14A8_1_basic_template@cpp
	call	@__CheckForDebuggerJustMyCode@4
	pop	edi
	pop	esi
	pop	ebx
	add	esp, 192				; 000000c0H
	cmp	ebp, esp
	call	__RTC_CheckEsp
	mov	esp, ebp
	pop	ebp
	ret	0
?__empty_global_delete@@YAXPAX@Z ENDP			; __empty_global_delete
_TEXT	ENDS
END
